target datalayout = "e-m:e-p270:32:32-p271:32:32-p272:64:64-i64:64-i128:128-f80:128-n8:16:32:64-S128"
target triple = "x86_64-pc-linux-gnu"

@homeplug_handle = internal global ptr null, align 8
@.str.290 = private unnamed_addr constant [18 x i8] c"HomePlug protocol\00", align 1
@.str.291 = private unnamed_addr constant [9 x i8] c"HomePlug\00", align 1
@.str.292 = private unnamed_addr constant [9 x i8] c"homeplug\00", align 1
@proto_homeplug = internal global i32 0, align 4

; Function Attrs: null_pointer_is_valid sspstrong uwtable
define hidden void @proto_register_homeplug() #0 {
  %1 = alloca ptr, align 8
  call void @llvm.lifetime.start.p0(i64 8, ptr %1) #5
  %2 = call i32 @proto_register_protocol(ptr noundef @.str.290, ptr noundef @.str.291, ptr noundef @.str.292)
  store i32 %2, ptr @proto_homeplug, align 4
  %3 = load i32, ptr @proto_homeplug, align 4
  call void @proto_register_field_array(i32 noundef %3, ptr noundef @proto_register_homeplug.hf, i32 noundef 146)
  call void @proto_register_subtree_array(ptr noundef @proto_register_homeplug.ett, i32 noundef 21)
  %4 = load i32, ptr @proto_homeplug, align 4
  %5 = call ptr @expert_register_protocol(i32 noundef %4)
  store ptr %5, ptr %1, align 8
  %6 = load ptr, ptr %1, align 8
  call void @expert_register_field_array(ptr noundef %6, ptr noundef @proto_register_homeplug.ei, i32 noundef 1)
  %7 = load i32, ptr @proto_homeplug, align 4
  %8 = call ptr @register_dissector(ptr noundef @.str.292, ptr noundef @dissect_homeplug, i32 noundef %7)
  store ptr %8, ptr @homeplug_handle, align 8
  call void @llvm.lifetime.end.p0(i64 8, ptr %1) #5
  ret void
}