; Function Attrs: null_pointer_is_valid sspstrong uwtable
define hidden void @proto_register_homeplug() local_unnamed_addr #0 {
  %1 = tail call i32 @proto_register_protocol(ptr noundef nonnull @.str.290, ptr noundef nonnull @.str.291, ptr noundef nonnull @.str.292)
  store i32 %1, ptr @proto_homeplug, align 4
  tail call void @proto_register_field_array(i32 noundef %1, ptr noundef nonnull @proto_register_homeplug.hf, i32 noundef 146)
  tail call void @proto_register_subtree_array(ptr noundef nonnull @proto_register_homeplug.ett, i32 noundef 21)
  %2 = load i32, ptr @proto_homeplug, align 4
  %3 = tail call ptr @expert_register_protocol(i32 noundef %2)
  tail call void @expert_register_field_array(ptr noundef %3, ptr noundef nonnull @proto_register_homeplug.ei, i32 noundef 1)
  %4 = load i32, ptr @proto_homeplug, align 4
  %5 = tail call ptr @register_dissector(ptr noundef nonnull @.str.292, ptr noundef nonnull @dissect_homeplug, i32 noundef %4)
  store ptr %5, ptr @homeplug_handle, align 8
  ret void
}